target datalayout = "e-m:e-p270:32:32-p271:32:32-p272:64:64-i64:64-i128:128-f80:128-n8:16:32:64-S128"
target triple = "x86_64-pc-linux-gnu"

%struct.psa_key_attributes_s = type { i16, i16, i32, %struct.psa_key_policy_s, i32 }
%struct.psa_key_policy_s = type { i32, i32, i32 }
%struct.psa_crypto_driver_pake_inputs_s = type { ptr, i64, ptr, i64, ptr, i64, %struct.psa_key_attributes_s, %struct.psa_pake_cipher_suite_s }
%struct.psa_pake_cipher_suite_s = type { i32, i8, i8, i16, i32 }
%struct.psa_pake_operation_s = type { i32, i32, i32, i8, %union.anon.5, %union.anon.6 }
%union.anon.5 = type { %struct.psa_jpake_computation_stage_s }
%struct.psa_jpake_computation_stage_s = type { i32, i32, i8, i8, i8 }
%union.anon.6 = type { %union.psa_driver_pake_context_t }
%union.psa_driver_pake_context_t = type { %struct.mbedtls_psa_pake_operation_t }
%struct.mbedtls_psa_pake_operation_t = type { i32, ptr, i64, i32, [336 x i8], i64, i64, %union.anon.7 }
%union.anon.7 = type { %struct.mbedtls_ecjpake_context }
%struct.mbedtls_ecjpake_context = type { i32, %struct.mbedtls_ecp_group, i32, i32, %struct.mbedtls_ecp_point, %struct.mbedtls_ecp_point, %struct.mbedtls_ecp_point, %struct.mbedtls_ecp_point, %struct.mbedtls_ecp_point, %struct.mbedtls_mpi, %struct.mbedtls_mpi, %struct.mbedtls_mpi }
%struct.mbedtls_ecp_group = type { i32, %struct.mbedtls_mpi, %struct.mbedtls_mpi, %struct.mbedtls_mpi, %struct.mbedtls_ecp_point, %struct.mbedtls_mpi, i64, i64, i32, ptr, ptr, ptr, ptr, ptr, i64 }
%struct.mbedtls_ecp_point = type { %struct.mbedtls_mpi, %struct.mbedtls_mpi, %struct.mbedtls_mpi }
%struct.mbedtls_mpi = type { ptr, i16, i16 }

; Function Attrs: inlinehint nounwind uwtable
define internal i32 @psa_driver_wrapper_pake_abort(ptr noundef %0) #6 {
  %2 = alloca i32, align 4
  %3 = alloca ptr, align 8
  store ptr %0, ptr %3, align 8, !tbaa !146
  %4 = load ptr, ptr %3, align 8, !tbaa !146
  %5 = getelementptr inbounds nuw %struct.psa_pake_operation_s, ptr %4, i32 0, i32 0
  %6 = load i32, ptr %5, align 8, !tbaa !166
  switch i32 %6, label %11 [
    i32 1, label %7
  ]

7:                                                ; preds = %1
  %8 = load ptr, ptr %3, align 8, !tbaa !146
  %9 = getelementptr inbounds nuw %struct.psa_pake_operation_s, ptr %8, i32 0, i32 5
  %10 = call i32 @mbedtls_psa_pake_abort(ptr noundef %9)
  store i32 %10, ptr %2, align 4
  br label %12

11:                                               ; preds = %1
  store i32 -135, ptr %2, align 4
  br label %12

12:                                               ; preds = %11, %7
  %13 = load i32, ptr %2, align 4
  ret i32 %13
}

; Function Attrs: nounwind uwtable
define hidden i32 @psa_pake_abort(ptr noundef %0) #0 {
  %2 = alloca ptr, align 8
  %3 = alloca i32, align 4
  store ptr %0, ptr %2, align 8, !tbaa !146
  call void @llvm.lifetime.start.p0(i64 4, ptr %3) #8
  store i32 0, ptr %3, align 4, !tbaa !3
  %4 = load ptr, ptr %2, align 8, !tbaa !146
  %5 = getelementptr inbounds nuw %struct.psa_pake_operation_s, ptr %4, i32 0, i32 3
  %6 = load i8, ptr %5, align 4, !tbaa !148
  %7 = zext i8 %6 to i32
  %8 = icmp eq i32 %7, 2
  br i1 %8, label %9, label %12

9:                                                ; preds = %1
  %10 = load ptr, ptr %2, align 8, !tbaa !146
  %11 = call i32 @psa_driver_wrapper_pake_abort(ptr noundef %10)
  store i32 %11, ptr %3, align 4, !tbaa !3
  br label %12

12:                                               ; preds = %9, %1
  %13 = load ptr, ptr %2, align 8, !tbaa !146
  %14 = getelementptr inbounds nuw %struct.psa_pake_operation_s, ptr %13, i32 0, i32 3
  %15 = load i8, ptr %14, align 4, !tbaa !148
  %16 = zext i8 %15 to i32
  %17 = icmp eq i32 %16, 1
  br i1 %17, label %18, label %56

18:                                               ; preds = %12
  %19 = load ptr, ptr %2, align 8, !tbaa !146
  %20 = getelementptr inbounds nuw %struct.psa_pake_operation_s, ptr %19, i32 0, i32 5
  %21 = getelementptr inbounds nuw %struct.psa_crypto_driver_pake_inputs_s, ptr %20, i32 0, i32 0
  %22 = load ptr, ptr %21, align 8, !tbaa !17
  %23 = icmp ne ptr %22, null
  br i1 %23, label %24, label %33

24:                                               ; preds = %18
  %25 = load ptr, ptr %2, align 8, !tbaa !146
  %26 = getelementptr inbounds nuw %struct.psa_pake_operation_s, ptr %25, i32 0, i32 5
  %27 = getelementptr inbounds nuw %struct.psa_crypto_driver_pake_inputs_s, ptr %26, i32 0, i32 0
  %28 = load ptr, ptr %27, align 8, !tbaa !17
  %29 = load ptr, ptr %2, align 8, !tbaa !146
  %30 = getelementptr inbounds nuw %struct.psa_pake_operation_s, ptr %29, i32 0, i32 5
  %31 = getelementptr inbounds nuw %struct.psa_crypto_driver_pake_inputs_s, ptr %30, i32 0, i32 1
  %32 = load i64, ptr %31, align 8, !tbaa !17
  call void @mbedtls_zeroize_and_free(ptr noundef %28, i64 noundef %32)
  br label %33

33:                                               ; preds = %24, %18
  %34 = load ptr, ptr %2, align 8, !tbaa !146
  %35 = getelementptr inbounds nuw %struct.psa_pake_operation_s, ptr %34, i32 0, i32 5
  %36 = getelementptr inbounds nuw %struct.psa_crypto_driver_pake_inputs_s, ptr %35, i32 0, i32 2
  %37 = load ptr, ptr %36, align 8, !tbaa !17
  %38 = icmp ne ptr %37, null
  br i1 %38, label %39, label %44

39:                                               ; preds = %33
  %40 = load ptr, ptr %2, align 8, !tbaa !146
  %41 = getelementptr inbounds nuw %struct.psa_pake_operation_s, ptr %40, i32 0, i32 5
  %42 = getelementptr inbounds nuw %struct.psa_crypto_driver_pake_inputs_s, ptr %41, i32 0, i32 2
  %43 = load ptr, ptr %42, align 8, !tbaa !17
  call void @free(ptr noundef %43) #8
  br label %44

44:                                               ; preds = %39, %33
  %45 = load ptr, ptr %2, align 8, !tbaa !146
  %46 = getelementptr inbounds nuw %struct.psa_pake_operation_s, ptr %45, i32 0, i32 5
  %47 = getelementptr inbounds nuw %struct.psa_crypto_driver_pake_inputs_s, ptr %46, i32 0, i32 4
  %48 = load ptr, ptr %47, align 8, !tbaa !17
  %49 = icmp ne ptr %48, null
  br i1 %49, label %50, label %55

50:                                               ; preds = %44
  %51 = load ptr, ptr %2, align 8, !tbaa !146
  %52 = getelementptr inbounds nuw %struct.psa_pake_operation_s, ptr %51, i32 0, i32 5
  %53 = getelementptr inbounds nuw %struct.psa_crypto_driver_pake_inputs_s, ptr %52, i32 0, i32 4
  %54 = load ptr, ptr %53, align 8, !tbaa !17
  call void @free(ptr noundef %54) #8
  br label %55

55:                                               ; preds = %50, %44
  br label %56

56:                                               ; preds = %55, %12
  %57 = load ptr, ptr %2, align 8, !tbaa !146
  call void @llvm.memset.p0.i64(ptr align 8 %57, i8 0, i64 912, i1 false)
  %58 = load i32, ptr %3, align 4, !tbaa !3
  call void @llvm.lifetime.end.p0(i64 4, ptr %3) #8
  ret i32 %58
}

; Function Attrs: nounwind uwtable
define hidden i32 @psa_pake_set_role(ptr noundef %0, i8 noundef zeroext %1) #0 {
  %3 = alloca i32, align 4
  %4 = alloca ptr, align 8
  %5 = alloca i8, align 1
  %6 = alloca i32, align 4
  %7 = alloca i32, align 4
  store ptr %0, ptr %4, align 8, !tbaa !146
  store i8 %1, ptr %5, align 1, !tbaa !17
  call void @llvm.lifetime.start.p0(i64 4, ptr %6) #8
  store i32 -151, ptr %6, align 4, !tbaa !3
  %8 = load ptr, ptr %4, align 8, !tbaa !146
  %9 = getelementptr inbounds nuw %struct.psa_pake_operation_s, ptr %8, i32 0, i32 3
  %10 = load i8, ptr %9, align 4, !tbaa !148
  %11 = zext i8 %10 to i32
  %12 = icmp ne i32 %11, 1
  br i1 %12, label %13, label %14

13:                                               ; preds = %2
  store i32 -137, ptr %6, align 4, !tbaa !3
  br label %26

14:                                               ; preds = %2
  %15 = load ptr, ptr %4, align 8, !tbaa !146
  %16 = getelementptr inbounds nuw %struct.psa_pake_operation_s, ptr %15, i32 0, i32 1
  %17 = load i32, ptr %16, align 4, !tbaa !152
  switch i32 %17, label %24 [
    i32 167772416, label %18
  ]

18:                                               ; preds = %14
  %19 = load i8, ptr %5, align 1, !tbaa !17
  %20 = zext i8 %19 to i32
  %21 = icmp eq i32 %20, 0
  br i1 %21, label %22, label %23

22:                                               ; preds = %18
  store i32 0, ptr %3, align 4
  store i32 1, ptr %7, align 4
  br label %30

23:                                               ; preds = %18
  store i32 -135, ptr %6, align 4, !tbaa !3
  br label %25

24:                                               ; preds = %14
  store i32 -134, ptr %6, align 4, !tbaa !3
  br label %26

25:                                               ; preds = %23
  br label %26

26:                                               ; preds = %25, %24, %13
  %27 = load ptr, ptr %4, align 8, !tbaa !146
  %28 = call i32 @psa_pake_abort(ptr noundef %27)
  %29 = load i32, ptr %6, align 4, !tbaa !3
  store i32 %29, ptr %3, align 4
  store i32 1, ptr %7, align 4
  br label %30

30:                                               ; preds = %26, %22
  call void @llvm.lifetime.end.p0(i64 4, ptr %6) #8
  %31 = load i32, ptr %3, align 4
  ret i32 %31
}