; Function Attrs: nounwind uwtable
define hidden range(i32 -137, 1) i32 @psa_pake_set_role(ptr noundef %0, i8 noundef zeroext %1) local_unnamed_addr #7 {
  %3 = getelementptr inbounds nuw i8, ptr %0, i64 12
  %4 = load i8, ptr %3, align 4, !tbaa !120
  switch i8 %4, label %psa_pake_abort.exit [
    i8 1, label %5
    i8 2, label %10
  ]

5:                                                ; preds = %2
  %6 = getelementptr inbounds nuw i8, ptr %0, i64 4
  %7 = load i32, ptr %6, align 4, !tbaa !124
  %cond = icmp eq i32 %7, 167772416
  br i1 %cond, label %8, label %psa_driver_wrapper_pake_abort.exit.i.thread

8:                                                ; preds = %5
  %9 = icmp eq i8 %1, 0
  br i1 %9, label %28, label %psa_driver_wrapper_pake_abort.exit.i.thread

10:                                               ; preds = %2
  %11 = load i32, ptr %0, align 8, !tbaa !131
  %cond.i.i = icmp eq i32 %11, 1
  br i1 %cond.i.i, label %psa_driver_wrapper_pake_abort.exit.i, label %psa_pake_abort.exit

psa_driver_wrapper_pake_abort.exit.i:             ; preds = %10
  %12 = getelementptr inbounds nuw i8, ptr %0, i64 32
  %13 = tail call i32 @mbedtls_psa_pake_abort(ptr noundef nonnull %12) #22
  %.pr.i = load i8, ptr %3, align 4, !tbaa !120
  %14 = icmp eq i8 %.pr.i, 1
  br i1 %14, label %psa_driver_wrapper_pake_abort.exit.i.thread, label %psa_pake_abort.exit

psa_driver_wrapper_pake_abort.exit.i.thread:      ; preds = %5, %8, %psa_driver_wrapper_pake_abort.exit.i
  %.0811 = phi i32 [ -137, %psa_driver_wrapper_pake_abort.exit.i ], [ -134, %5 ], [ -135, %8 ]
  %15 = getelementptr inbounds nuw i8, ptr %0, i64 32
  %16 = load ptr, ptr %15, align 8, !tbaa !27
  %.not.i = icmp eq ptr %16, null
  br i1 %.not.i, label %20, label %17

17:                                               ; preds = %psa_driver_wrapper_pake_abort.exit.i.thread
  %18 = getelementptr inbounds nuw i8, ptr %0, i64 40
  %19 = load i64, ptr %18, align 8, !tbaa !27
  tail call void @mbedtls_zeroize_and_free(ptr noundef nonnull %16, i64 noundef %19) #22
  br label %20

20:                                               ; preds = %17, %psa_driver_wrapper_pake_abort.exit.i.thread
  %21 = getelementptr inbounds nuw i8, ptr %0, i64 48
  %22 = load ptr, ptr %21, align 8, !tbaa !27
  %.not14.i = icmp eq ptr %22, null
  br i1 %.not14.i, label %24, label %23

23:                                               ; preds = %20
  tail call void @free(ptr noundef nonnull %22) #22
  br label %24

24:                                               ; preds = %23, %20
  %25 = getelementptr inbounds nuw i8, ptr %0, i64 64
  %26 = load ptr, ptr %25, align 8, !tbaa !27
  %.not15.i = icmp eq ptr %26, null
  br i1 %.not15.i, label %psa_pake_abort.exit, label %27

27:                                               ; preds = %24
  tail call void @free(ptr noundef nonnull %26) #22
  br label %psa_pake_abort.exit

psa_pake_abort.exit:                              ; preds = %2, %10, %psa_driver_wrapper_pake_abort.exit.i, %24, %27
  %.07 = phi i32 [ -137, %10 ], [ -137, %psa_driver_wrapper_pake_abort.exit.i ], [ %.0811, %24 ], [ %.0811, %27 ], [ -137, %2 ]
  tail call void @llvm.memset.p0.i64(ptr noundef nonnull align 8 dereferenceable(912) %0, i8 0, i64 912, i1 false)
  br label %28

28:                                               ; preds = %8, %psa_pake_abort.exit
  %.05 = phi i32 [ %.07, %psa_pake_abort.exit ], [ 0, %8 ]
  ret i32 %.05
}